target datalayout = "e-m:e-p270:32:32-p271:32:32-p272:64:64-i64:64-i128:128-f80:128-n8:16:32:64-S128"
target triple = "x86_64-pc-linux-gnu"

%"class.cv::Size_" = type { i32, i32 }

; Function Attrs: inlinehint mustprogress nounwind uwtable
define linkonce_odr hidden void @_ZN2cv5Size_IiEC2Eii(ptr noundef nonnull align 4 dereferenceable(8) %0, i32 noundef %1, i32 noundef %2) unnamed_addr #11 comdat align 2 {
  %4 = alloca ptr, align 8
  %5 = alloca i32, align 4
  %6 = alloca i32, align 4
  store ptr %0, ptr %4, align 8, !tbaa !213
  store i32 %1, ptr %5, align 4, !tbaa !78
  store i32 %2, ptr %6, align 4, !tbaa !78
  %7 = load ptr, ptr %4, align 8
  %8 = getelementptr inbounds nuw %"class.cv::Size_", ptr %7, i32 0, i32 0
  %9 = load i32, ptr %5, align 4, !tbaa !78
  store i32 %9, ptr %8, align 4, !tbaa !215
  %10 = getelementptr inbounds nuw %"class.cv::Size_", ptr %7, i32 0, i32 1
  %11 = load i32, ptr %6, align 4, !tbaa !78
  store i32 %11, ptr %10, align 4, !tbaa !217
  ret void
}

; Function Attrs: mustprogress uwtable
define internal noundef zeroext i1 @_ZN2cvL11rgb_convertEPvS0_iiib(ptr noundef %0, ptr noundef %1, i32 noundef %2, i32 noundef %3, i32 noundef %4, i1 noundef zeroext %5) #4 {
  %7 = alloca ptr, align 8
  %8 = alloca ptr, align 8
  %9 = alloca i32, align 4
  %10 = alloca i32, align 4
  %11 = alloca i32, align 4
  %12 = alloca i8, align 1
  %13 = alloca i8, align 1
  %14 = alloca %"class.cv::Size_", align 4
  %15 = alloca %"class.cv::Size_", align 4
  %16 = alloca %"class.cv::Size_", align 4
  %17 = alloca %"class.cv::Size_", align 4
  store ptr %0, ptr %7, align 8, !tbaa !96
  store ptr %1, ptr %8, align 8, !tbaa !96
  store i32 %2, ptr %9, align 4, !tbaa !78
  store i32 %3, ptr %10, align 4, !tbaa !78
  store i32 %4, ptr %11, align 4, !tbaa !78
  %18 = zext i1 %5 to i8
  store i8 %18, ptr %12, align 1, !tbaa !79
  call void @llvm.lifetime.start.p0(i64 1, ptr %13) #3
  store i8 0, ptr %13, align 1, !tbaa !79
  %19 = load i32, ptr %10, align 4, !tbaa !78
  %20 = icmp eq i32 %19, 3
  br i1 %20, label %21, label %55

21:                                               ; preds = %6
  %22 = load i32, ptr %11, align 4, !tbaa !78
  switch i32 %22, label %53 [
    i32 0, label %23
    i32 2, label %38
  ]

23:                                               ; preds = %21
  %24 = load i8, ptr %12, align 1, !tbaa !79, !range !80, !noundef !81
  %25 = trunc i8 %24 to i1
  br i1 %25, label %26, label %32

26:                                               ; preds = %23
  %27 = load ptr, ptr %8, align 8, !tbaa !96
  %28 = load ptr, ptr %7, align 8, !tbaa !96
  %29 = load i32, ptr %9, align 4, !tbaa !78
  %30 = sext i32 %29 to i64
  %31 = mul i64 1, %30
  call void @llvm.memcpy.p0.p0.i64(ptr align 1 %27, ptr align 1 %28, i64 %31, i1 false)
  br label %37

32:                                               ; preds = %23
  %33 = load ptr, ptr %7, align 8, !tbaa !96
  %34 = load ptr, ptr %8, align 8, !tbaa !96
  %35 = load i32, ptr %9, align 4, !tbaa !78
  call void @_ZN2cv5Size_IiEC2Eii(ptr noundef nonnull align 4 dereferenceable(8) %14, i32 noundef %35, i32 noundef 1)
  %36 = load i64, ptr %14, align 4
  call void @_ZN2cv21icvCvt_BGR2RGB_8u_C3REPKhiPhiNS_5Size_IiEE(ptr noundef %33, i32 noundef 0, ptr noundef %34, i32 noundef 0, i64 %36)
  br label %37

37:                                               ; preds = %32, %26
  store i8 1, ptr %13, align 1, !tbaa !79
  br label %54

38:                                               ; preds = %21
  %39 = load i8, ptr %12, align 1, !tbaa !79, !range !80, !noundef !81
  %40 = trunc i8 %39 to i1
  br i1 %40, label %41, label %47

41:                                               ; preds = %38
  %42 = load ptr, ptr %8, align 8, !tbaa !96
  %43 = load ptr, ptr %7, align 8, !tbaa !96
  %44 = load i32, ptr %9, align 4, !tbaa !78
  %45 = sext i32 %44 to i64
  %46 = mul i64 2, %45
  call void @llvm.memcpy.p0.p0.i64(ptr align 1 %42, ptr align 1 %43, i64 %46, i1 false)
  br label %52

47:                                               ; preds = %38
  %48 = load ptr, ptr %7, align 8, !tbaa !96
  %49 = load ptr, ptr %8, align 8, !tbaa !96
  %50 = load i32, ptr %9, align 4, !tbaa !78
  call void @_ZN2cv5Size_IiEC2Eii(ptr noundef nonnull align 4 dereferenceable(8) %15, i32 noundef %50, i32 noundef 1)
  %51 = load i64, ptr %15, align 4
  call void @_ZN2cv22icvCvt_BGR2RGB_16u_C3REPKtiPtiNS_5Size_IiEE(ptr noundef %48, i32 noundef 0, ptr noundef %49, i32 noundef 0, i64 %51)
  br label %52

52:                                               ; preds = %47, %41
  store i8 1, ptr %13, align 1, !tbaa !79
  br label %54

53:                                               ; preds = %21
  br label %54

54:                                               ; preds = %53, %52, %37
  br label %73

55:                                               ; preds = %6
  %56 = load i32, ptr %10, align 4, !tbaa !78
  %57 = icmp eq i32 %56, 1
  br i1 %57, label %58, label %72

58:                                               ; preds = %55
  %59 = load i32, ptr %11, align 4, !tbaa !78
  switch i32 %59, label %70 [
    i32 0, label %60
    i32 2, label %65
  ]

60:                                               ; preds = %58
  %61 = load ptr, ptr %7, align 8, !tbaa !96
  %62 = load ptr, ptr %8, align 8, !tbaa !96
  %63 = load i32, ptr %9, align 4, !tbaa !78
  call void @_ZN2cv5Size_IiEC2Eii(ptr noundef nonnull align 4 dereferenceable(8) %16, i32 noundef %63, i32 noundef 1)
  %64 = load i64, ptr %16, align 4
  call void @_ZN2cv24icvCvt_BGR2Gray_8u_C3C1REPKhiPhiNS_5Size_IiEEi(ptr noundef %61, i32 noundef 0, ptr noundef %62, i32 noundef 0, i64 %64, i32 noundef 2)
  store i8 1, ptr %13, align 1, !tbaa !79
  br label %71

65:                                               ; preds = %58
  %66 = load ptr, ptr %7, align 8, !tbaa !96
  %67 = load ptr, ptr %8, align 8, !tbaa !96
  %68 = load i32, ptr %9, align 4, !tbaa !78
  call void @_ZN2cv5Size_IiEC2Eii(ptr noundef nonnull align 4 dereferenceable(8) %17, i32 noundef %68, i32 noundef 1)
  %69 = load i64, ptr %17, align 4
  call void @_ZN2cv26icvCvt_BGRA2Gray_16u_CnC1REPKtiPtiNS_5Size_IiEEii(ptr noundef %66, i32 noundef 0, ptr noundef %67, i32 noundef 0, i64 %69, i32 noundef 3, i32 noundef 2)
  store i8 1, ptr %13, align 1, !tbaa !79
  br label %71

70:                                               ; preds = %58
  br label %71

71:                                               ; preds = %70, %65, %60
  br label %72

72:                                               ; preds = %71, %55
  br label %73

73:                                               ; preds = %72, %54
  %74 = load i8, ptr %13, align 1, !tbaa !79, !range !80, !noundef !81
  %75 = trunc i8 %74 to i1
  call void @llvm.lifetime.end.p0(i64 1, ptr %13) #3
  ret i1 %75
}