; Function Attrs: mustprogress uwtable
define internal noundef zeroext i1 @_ZN2cvL11rgb_convertEPvS0_iiib(ptr noundef %0, ptr noundef %1, i32 noundef %2, i32 noundef %3, i32 noundef %4, i1 noundef zeroext %5) #3 {
  switch i32 %3, label %20 [
    i32 3, label %7
    i32 1, label %17
  ]

7:                                                ; preds = %6
  switch i32 %4, label %20 [
    i32 0, label %8
    i32 2, label %12
  ]

8:                                                ; preds = %7
  br i1 %5, label %9, label %11

9:                                                ; preds = %8
  %10 = sext i32 %2 to i64
  tail call void @llvm.memcpy.p0.p0.i64(ptr align 1 %1, ptr align 1 %0, i64 %10, i1 false)
  br label %20

11:                                               ; preds = %8
  %.sroa.029.0.insert.ext = zext i32 %2 to i64
  %.sroa.029.0.insert.insert = or disjoint i64 %.sroa.029.0.insert.ext, 4294967296
  tail call void @_ZN2cv21icvCvt_BGR2RGB_8u_C3REPKhiPhiNS_5Size_IiEE(ptr noundef %0, i32 noundef 0, ptr noundef %1, i32 noundef 0, i64 %.sroa.029.0.insert.insert)
  br label %20

12:                                               ; preds = %7
  br i1 %5, label %13, label %16

13:                                               ; preds = %12
  %14 = sext i32 %2 to i64
  %15 = shl nsw i64 %14, 1
  tail call void @llvm.memcpy.p0.p0.i64(ptr align 1 %1, ptr align 1 %0, i64 %15, i1 false)
  br label %20

16:                                               ; preds = %12
  %.sroa.027.0.insert.ext = zext i32 %2 to i64
  %.sroa.027.0.insert.insert = or disjoint i64 %.sroa.027.0.insert.ext, 4294967296
  tail call void @_ZN2cv22icvCvt_BGR2RGB_16u_C3REPKtiPtiNS_5Size_IiEE(ptr noundef %0, i32 noundef 0, ptr noundef %1, i32 noundef 0, i64 %.sroa.027.0.insert.insert)
  br label %20

17:                                               ; preds = %6
  switch i32 %4, label %20 [
    i32 0, label %18
    i32 2, label %19
  ]

18:                                               ; preds = %17
  %.sroa.025.0.insert.ext = zext i32 %2 to i64
  %.sroa.025.0.insert.insert = or disjoint i64 %.sroa.025.0.insert.ext, 4294967296
  tail call void @_ZN2cv24icvCvt_BGR2Gray_8u_C3C1REPKhiPhiNS_5Size_IiEEi(ptr noundef %0, i32 noundef 0, ptr noundef %1, i32 noundef 0, i64 %.sroa.025.0.insert.insert, i32 noundef 2)
  br label %20

19:                                               ; preds = %17
  %.sroa.0.0.insert.ext = zext i32 %2 to i64
  %.sroa.0.0.insert.insert = or disjoint i64 %.sroa.0.0.insert.ext, 4294967296
  tail call void @_ZN2cv26icvCvt_BGRA2Gray_16u_CnC1REPKtiPtiNS_5Size_IiEEii(ptr noundef %0, i32 noundef 0, ptr noundef %1, i32 noundef 0, i64 %.sroa.0.0.insert.insert, i32 noundef 3, i32 noundef 2)
  br label %20

20:                                               ; preds = %6, %13, %16, %9, %11, %17, %19, %18, %7
  %.0 = phi i1 [ false, %7 ], [ false, %17 ], [ true, %19 ], [ true, %18 ], [ true, %11 ], [ true, %9 ], [ true, %16 ], [ true, %13 ], [ false, %6 ]
  ret i1 %.0
}